; Function Attrs: mustprogress uwtable
define hidden noundef nonnull align 8 dereferenceable(32) ptr @_ZN8FileTest12GetParameterB5cxx11Ev(ptr noundef nonnull align 8 dereferenceable(176) %0) local_unnamed_addr #6 align 2 {
  %2 = getelementptr inbounds nuw i8, ptr %0, i64 16
  %3 = getelementptr inbounds nuw i8, ptr %0, i64 128
  %4 = tail call { ptr, ptr } @_ZNSt8_Rb_treeINSt7__cxx1112basic_stringIcSt11char_traitsIcESaIcEEES5_St9_IdentityIS5_ESt4lessIS5_ESaIS5_EE11equal_rangeERKS5_(ptr noundef nonnull align 8 dereferenceable(48) %3, ptr noundef nonnull align 8 dereferenceable(32) %2)
  %5 = extractvalue { ptr, ptr } %4, 0
  %6 = extractvalue { ptr, ptr } %4, 1
  tail call void @_ZNSt8_Rb_treeINSt7__cxx1112basic_stringIcSt11char_traitsIcESaIcEEES5_St9_IdentityIS5_ESt4lessIS5_ESaIS5_EE12_M_erase_auxESt23_Rb_tree_const_iteratorIS5_ESD_(ptr noundef nonnull align 8 dereferenceable(48) %3, ptr %5, ptr %6)
  %7 = getelementptr inbounds nuw i8, ptr %0, i64 48
  ret ptr %7
}